target datalayout = "e-m:e-p270:32:32-p271:32:32-p272:64:64-i64:64-i128:128-f80:128-n8:16:32:64-S128"
target triple = "x86_64-pc-linux-gnu"

%struct.MovTextContext = type { ptr, ptr, ptr, ptr, ptr, i32, i32, %struct.StyleBox, %struct.AVBPrint, %struct.HighlightBox, %struct.HilightcolorBox, i8, %struct.StyleBox, i16, ptr, i32, double, i32 }
%struct.AVBPrint = type { ptr, i32, i32, i32, [1 x i8], [1000 x i8] }
%struct.HighlightBox = type { i16, i16 }
%struct.HilightcolorBox = type { i32 }
%struct.StyleBox = type { i16, i16, i8, i16, i8, i32 }

; Function Attrs: alwaysinline nounwind willreturn memory(none) uwtable
define internal zeroext i16 @av_bswap16(i16 noundef zeroext %0) #9 {
  %2 = alloca i16, align 2
  store i16 %0, ptr %2, align 2, !tbaa !102
  %3 = load i16, ptr %2, align 2, !tbaa !102
  %4 = zext i16 %3 to i32
  %5 = ashr i32 %4, 8
  %6 = load i16, ptr %2, align 2, !tbaa !102
  %7 = zext i16 %6 to i32
  %8 = shl i32 %7, 8
  %9 = or i32 %5, %8
  %10 = trunc i32 %9 to i16
  store i16 %10, ptr %2, align 2, !tbaa !102
  %11 = load i16, ptr %2, align 2, !tbaa !102
  ret i16 %11
}

; Function Attrs: alwaysinline nounwind willreturn memory(none) uwtable
define internal i32 @av_bswap32(i32 noundef %0) #9 {
  %2 = alloca i32, align 4
  store i32 %0, ptr %2, align 4, !tbaa !42
  %3 = load i32, ptr %2, align 4, !tbaa !42
  %4 = shl i32 %3, 8
  %5 = and i32 %4, 65280
  %6 = load i32, ptr %2, align 4, !tbaa !42
  %7 = lshr i32 %6, 8
  %8 = and i32 %7, 255
  %9 = or i32 %5, %8
  %10 = shl i32 %9, 16
  %11 = load i32, ptr %2, align 4, !tbaa !42
  %12 = lshr i32 %11, 16
  %13 = shl i32 %12, 8
  %14 = and i32 %13, 65280
  %15 = load i32, ptr %2, align 4, !tbaa !42
  %16 = lshr i32 %15, 16
  %17 = lshr i32 %16, 8
  %18 = and i32 %17, 255
  %19 = or i32 %14, %18
  %20 = or i32 %10, %19
  ret i32 %20
}

; Function Attrs: nounwind uwtable
define internal void @mov_text_cleanup(ptr noundef %0) #1 {
  %2 = alloca ptr, align 8
  store ptr %0, ptr %2, align 8, !tbaa !29
  %3 = load ptr, ptr %2, align 8, !tbaa !29
  %4 = getelementptr inbounds nuw %struct.MovTextContext, ptr %3, i32 0, i32 5
  store i32 0, ptr %4, align 8, !tbaa !47
  %5 = load ptr, ptr %2, align 8, !tbaa !29
  %6 = getelementptr inbounds nuw %struct.MovTextContext, ptr %5, i32 0, i32 7
  %7 = load ptr, ptr %2, align 8, !tbaa !29
  %8 = getelementptr inbounds nuw %struct.MovTextContext, ptr %7, i32 0, i32 12
  call void @llvm.memcpy.p0.p0.i64(ptr align 8 %6, ptr align 4 %8, i64 16, i1 false), !tbaa.struct !112
  ret void
}

; Function Attrs: alwaysinline nounwind uwtable
define internal void @bytestream_put_byte(ptr noundef %0, i32 noundef %1) #5 {
  %3 = alloca ptr, align 8
  %4 = alloca i32, align 4
  store ptr %0, ptr %3, align 8, !tbaa !97
  store i32 %1, ptr %4, align 4, !tbaa !42
  br label %5

5:                                                ; preds = %2
  %6 = load i32, ptr %4, align 4, !tbaa !42
  %7 = trunc i32 %6 to i8
  %8 = load ptr, ptr %3, align 8, !tbaa !97
  %9 = load ptr, ptr %8, align 8, !tbaa !43
  %10 = getelementptr inbounds i8, ptr %9, i64 0
  store i8 %7, ptr %10, align 1, !tbaa !63
  br label %11

11:                                               ; preds = %5
  %12 = load ptr, ptr %3, align 8, !tbaa !97
  %13 = load ptr, ptr %12, align 8, !tbaa !43
  %14 = getelementptr inbounds i8, ptr %13, i64 1
  store ptr %14, ptr %12, align 8, !tbaa !43
  ret void
}

; Function Attrs: alwaysinline nounwind uwtable
define internal void @bytestream_put_be16(ptr noundef %0, i32 noundef %1) #5 {
  %3 = alloca ptr, align 8
  %4 = alloca i32, align 4
  store ptr %0, ptr %3, align 8, !tbaa !97
  store i32 %1, ptr %4, align 4, !tbaa !42
  %5 = load i32, ptr %4, align 4, !tbaa !42
  %6 = trunc i32 %5 to i16
  %7 = call zeroext i16 @av_bswap16(i16 noundef zeroext %6) #12
  %8 = load ptr, ptr %3, align 8, !tbaa !97
  %9 = load ptr, ptr %8, align 8, !tbaa !43
  store i16 %7, ptr %9, align 1, !tbaa !63
  %10 = load ptr, ptr %3, align 8, !tbaa !97
  %11 = load ptr, ptr %10, align 8, !tbaa !43
  %12 = getelementptr inbounds i8, ptr %11, i64 2
  store ptr %12, ptr %10, align 8, !tbaa !43
  ret void
}

; Function Attrs: alwaysinline nounwind uwtable
define internal void @bytestream_put_be32(ptr noundef %0, i32 noundef %1) #5 {
  %3 = alloca ptr, align 8
  %4 = alloca i32, align 4
  store ptr %0, ptr %3, align 8, !tbaa !97
  store i32 %1, ptr %4, align 4, !tbaa !42
  %5 = load i32, ptr %4, align 4, !tbaa !42
  %6 = call i32 @av_bswap32(i32 noundef %5) #12
  %7 = load ptr, ptr %3, align 8, !tbaa !97
  %8 = load ptr, ptr %7, align 8, !tbaa !43
  store i32 %6, ptr %8, align 1, !tbaa !63
  %9 = load ptr, ptr %3, align 8, !tbaa !97
  %10 = load ptr, ptr %9, align 8, !tbaa !43
  %11 = getelementptr inbounds i8, ptr %10, i64 4
  store ptr %11, ptr %9, align 8, !tbaa !43
  ret void
}

; Function Attrs: nounwind uwtable
define internal void @encode_styl(ptr noundef %0) #1 {
  %2 = alloca ptr, align 8
  %3 = alloca [12 x i8], align 1
  %4 = alloca ptr, align 8
  %5 = alloca i32, align 4
  %6 = alloca ptr, align 8
  store ptr %0, ptr %2, align 8, !tbaa !29
  %7 = load ptr, ptr %2, align 8, !tbaa !29
  %8 = getelementptr inbounds nuw %struct.MovTextContext, ptr %7, i32 0, i32 11
  %9 = load i8, ptr %8, align 8, !tbaa !48
  %10 = zext i8 %9 to i32
  %11 = and i32 %10, 1
  %12 = icmp ne i32 %11, 0
  br i1 %12, label %13, label %76

13:                                               ; preds = %1
  %14 = load ptr, ptr %2, align 8, !tbaa !29
  %15 = getelementptr inbounds nuw %struct.MovTextContext, ptr %14, i32 0, i32 5
  %16 = load i32, ptr %15, align 8, !tbaa !47
  %17 = icmp ne i32 %16, 0
  br i1 %17, label %18, label %76

18:                                               ; preds = %13
  call void @llvm.lifetime.start.p0(i64 12, ptr %3) #11
  call void @llvm.lifetime.start.p0(i64 8, ptr %4) #11
  %19 = getelementptr inbounds [12 x i8], ptr %3, i64 0, i64 0
  store ptr %19, ptr %4, align 8, !tbaa !43
  %20 = load ptr, ptr %2, align 8, !tbaa !29
  %21 = getelementptr inbounds nuw %struct.MovTextContext, ptr %20, i32 0, i32 5
  %22 = load i32, ptr %21, align 8, !tbaa !47
  %23 = mul i32 %22, 12
  %24 = add i32 %23, 10
  call void @bytestream_put_be32(ptr noundef %4, i32 noundef %24)
  call void @bytestream_put_be32(ptr noundef %4, i32 noundef 1937013100)
  %25 = load ptr, ptr %2, align 8, !tbaa !29
  %26 = getelementptr inbounds nuw %struct.MovTextContext, ptr %25, i32 0, i32 5
  %27 = load i32, ptr %26, align 8, !tbaa !47
  call void @bytestream_put_be16(ptr noundef %4, i32 noundef %27)
  %28 = load ptr, ptr %2, align 8, !tbaa !29
  %29 = getelementptr inbounds nuw %struct.MovTextContext, ptr %28, i32 0, i32 8
  %30 = getelementptr inbounds [12 x i8], ptr %3, i64 0, i64 0
  call void @av_bprint_append_data(ptr noundef %29, ptr noundef %30, i32 noundef 10)
  call void @llvm.lifetime.start.p0(i64 4, ptr %5) #11
  store i32 0, ptr %5, align 4, !tbaa !42
  br label %31

31:                                               ; preds = %72, %18
  %32 = load i32, ptr %5, align 4, !tbaa !42
  %33 = load ptr, ptr %2, align 8, !tbaa !29
  %34 = getelementptr inbounds nuw %struct.MovTextContext, ptr %33, i32 0, i32 5
  %35 = load i32, ptr %34, align 8, !tbaa !47
  %36 = icmp ult i32 %32, %35
  br i1 %36, label %38, label %37

37:                                               ; preds = %31
  call void @llvm.lifetime.end.p0(i64 4, ptr %5) #11
  br label %75

38:                                               ; preds = %31
  call void @llvm.lifetime.start.p0(i64 8, ptr %6) #11
  %39 = load ptr, ptr %2, align 8, !tbaa !29
  %40 = getelementptr inbounds nuw %struct.MovTextContext, ptr %39, i32 0, i32 4
  %41 = load ptr, ptr %40, align 8, !tbaa !110
  %42 = load i32, ptr %5, align 4, !tbaa !42
  %43 = zext i32 %42 to i64
  %44 = getelementptr inbounds nuw %struct.StyleBox, ptr %41, i64 %43
  store ptr %44, ptr %6, align 8, !tbaa !29
  %45 = getelementptr inbounds [12 x i8], ptr %3, i64 0, i64 0
  store ptr %45, ptr %4, align 8, !tbaa !43
  %46 = load ptr, ptr %6, align 8, !tbaa !29
  %47 = getelementptr inbounds nuw %struct.StyleBox, ptr %46, i32 0, i32 0
  %48 = load i16, ptr %47, align 4, !tbaa !118
  %49 = zext i16 %48 to i32
  call void @bytestream_put_be16(ptr noundef %4, i32 noundef %49)
  %50 = load ptr, ptr %6, align 8, !tbaa !29
  %51 = getelementptr inbounds nuw %struct.StyleBox, ptr %50, i32 0, i32 1
  %52 = load i16, ptr %51, align 2, !tbaa !119
  %53 = zext i16 %52 to i32
  call void @bytestream_put_be16(ptr noundef %4, i32 noundef %53)
  %54 = load ptr, ptr %6, align 8, !tbaa !29
  %55 = getelementptr inbounds nuw %struct.StyleBox, ptr %54, i32 0, i32 3
  %56 = load i16, ptr %55, align 2, !tbaa !120
  %57 = zext i16 %56 to i32
  call void @bytestream_put_be16(ptr noundef %4, i32 noundef %57)
  %58 = load ptr, ptr %6, align 8, !tbaa !29
  %59 = getelementptr inbounds nuw %struct.StyleBox, ptr %58, i32 0, i32 2
  %60 = load i8, ptr %59, align 4, !tbaa !121
  %61 = zext i8 %60 to i32
  call void @bytestream_put_byte(ptr noundef %4, i32 noundef %61)
  %62 = load ptr, ptr %6, align 8, !tbaa !29
  %63 = getelementptr inbounds nuw %struct.StyleBox, ptr %62, i32 0, i32 4
  %64 = load i8, ptr %63, align 4, !tbaa !122
  %65 = zext i8 %64 to i32
  call void @bytestream_put_byte(ptr noundef %4, i32 noundef %65)
  %66 = load ptr, ptr %6, align 8, !tbaa !29
  %67 = getelementptr inbounds nuw %struct.StyleBox, ptr %66, i32 0, i32 5
  %68 = load i32, ptr %67, align 4, !tbaa !123
  call void @bytestream_put_be32(ptr noundef %4, i32 noundef %68)
  %69 = load ptr, ptr %2, align 8, !tbaa !29
  %70 = getelementptr inbounds nuw %struct.MovTextContext, ptr %69, i32 0, i32 8
  %71 = getelementptr inbounds [12 x i8], ptr %3, i64 0, i64 0
  call void @av_bprint_append_data(ptr noundef %70, ptr noundef %71, i32 noundef 12)
  call void @llvm.lifetime.end.p0(i64 8, ptr %6) #11
  br label %72

72:                                               ; preds = %38
  %73 = load i32, ptr %5, align 4, !tbaa !42
  %74 = add i32 %73, 1
  store i32 %74, ptr %5, align 4, !tbaa !42
  br label %31, !llvm.loop !124

75:                                               ; preds = %37
  call void @llvm.lifetime.end.p0(i64 8, ptr %4) #11
  call void @llvm.lifetime.end.p0(i64 12, ptr %3) #11
  br label %76

76:                                               ; preds = %75, %13, %1
  %77 = load ptr, ptr %2, align 8, !tbaa !29
  call void @mov_text_cleanup(ptr noundef %77)
  ret void
}