; Function Attrs: nounwind uwtable
define internal void @encode_styl(ptr noundef %0) #1 {
  %2 = alloca [12 x i8], align 4
  %3 = getelementptr inbounds nuw i8, ptr %0, i64 1096
  %4 = load i8, ptr %3, align 8, !tbaa !76
  %5 = and i8 %4, 1
  %.not = icmp eq i8 %5, 0
  br i1 %.not, label %44, label %6

6:                                                ; preds = %1
  %7 = getelementptr inbounds nuw i8, ptr %0, i64 40
  %8 = load i32, ptr %7, align 8, !tbaa !75
  %.not17 = icmp eq i32 %8, 0
  br i1 %.not17, label %44, label %9

9:                                                ; preds = %6
  call void @llvm.lifetime.start.p0(i64 12, ptr nonnull %2) #8
  %10 = mul i32 %8, 12
  %11 = add i32 %10, 10
  %12 = tail call i32 @llvm.bswap.i32(i32 %11)
  store i32 %12, ptr %2, align 4, !tbaa !58
  %13 = getelementptr inbounds nuw i8, ptr %2, i64 4
  store i32 1819898995, ptr %13, align 4, !tbaa !58
  %14 = getelementptr inbounds nuw i8, ptr %2, i64 8
  %15 = trunc i32 %8 to i16
  %16 = tail call i16 @llvm.bswap.i16(i16 %15)
  store i16 %16, ptr %14, align 4, !tbaa !58
  %17 = getelementptr inbounds nuw i8, ptr %0, i64 64
  call void @av_bprint_append_data(ptr noundef nonnull %17, ptr noundef nonnull %2, i32 noundef 10) #8
  %18 = load i32, ptr %7, align 8, !tbaa !75
  %.not36 = icmp eq i32 %18, 0
  br i1 %.not36, label %._crit_edge, label %.lr.ph

.lr.ph:                                           ; preds = %9
  %19 = getelementptr inbounds nuw i8, ptr %0, i64 32
  %20 = getelementptr inbounds nuw i8, ptr %2, i64 2
  %21 = getelementptr inbounds nuw i8, ptr %2, i64 6
  %22 = getelementptr inbounds nuw i8, ptr %2, i64 7
  br label %23

._crit_edge:                                      ; preds = %23, %9
  call void @llvm.lifetime.end.p0(i64 12, ptr nonnull %2) #8
  br label %44

23:                                               ; preds = %.lr.ph, %23
  %indvars.iv = phi i64 [ 0, %.lr.ph ], [ %indvars.iv.next, %23 ]
  %24 = load ptr, ptr %19, align 8, !tbaa !102
  %25 = getelementptr inbounds nuw %struct.StyleBox, ptr %24, i64 %indvars.iv
  %26 = load i16, ptr %25, align 4, !tbaa !111
  %27 = call i16 @llvm.bswap.i16(i16 %26)
  store i16 %27, ptr %2, align 4, !tbaa !58
  %28 = getelementptr inbounds nuw i8, ptr %25, i64 2
  %29 = load i16, ptr %28, align 2, !tbaa !112
  %30 = call i16 @llvm.bswap.i16(i16 %29)
  store i16 %30, ptr %20, align 2, !tbaa !58
  %31 = getelementptr inbounds nuw i8, ptr %25, i64 6
  %32 = load i16, ptr %31, align 2, !tbaa !113
  %33 = call i16 @llvm.bswap.i16(i16 %32)
  store i16 %33, ptr %13, align 4, !tbaa !58
  %34 = getelementptr inbounds nuw i8, ptr %25, i64 4
  %35 = load i8, ptr %34, align 4, !tbaa !114
  store i8 %35, ptr %21, align 2, !tbaa !58
  %36 = getelementptr inbounds nuw i8, ptr %25, i64 8
  %37 = load i8, ptr %36, align 4, !tbaa !115
  store i8 %37, ptr %22, align 1, !tbaa !58
  %38 = getelementptr inbounds nuw i8, ptr %25, i64 12
  %39 = load i32, ptr %38, align 4, !tbaa !116
  %40 = call i32 @llvm.bswap.i32(i32 %39)
  store i32 %40, ptr %14, align 4, !tbaa !58
  call void @av_bprint_append_data(ptr noundef nonnull %17, ptr noundef nonnull %2, i32 noundef 12) #8
  %indvars.iv.next = add nuw nsw i64 %indvars.iv, 1
  %41 = load i32, ptr %7, align 8, !tbaa !75
  %42 = zext i32 %41 to i64
  %43 = icmp samesign ult i64 %indvars.iv.next, %42
  br i1 %43, label %23, label %._crit_edge, !llvm.loop !117

44:                                               ; preds = %._crit_edge, %6, %1
  %45 = getelementptr inbounds nuw i8, ptr %0, i64 40
  store i32 0, ptr %45, align 8, !tbaa !75
  %46 = getelementptr inbounds nuw i8, ptr %0, i64 48
  %47 = getelementptr inbounds nuw i8, ptr %0, i64 1100
  call void @llvm.memcpy.p0.p0.i64(ptr noundef nonnull align 8 dereferenceable(16) %46, ptr noundef nonnull align 4 dereferenceable(16) %47, i64 16, i1 false), !tbaa.struct !104
  ret void
}